target datalayout = "e-m:e-p270:32:32-p271:32:32-p272:64:64-i64:64-i128:128-f80:128-n8:16:32:64-S128"
target triple = "x86_64-pc-linux-gnu"

; Function Attrs: nounwind uwtable
define internal i32 @_handle_new_key_char(ptr noundef %0, ptr noundef %1, ptr noundef %2) #0 {
  %4 = alloca ptr, align 8
  %5 = alloca ptr, align 8
  %6 = alloca ptr, align 8
  %7 = alloca ptr, align 8
  %8 = alloca ptr, align 8
  %9 = alloca ptr, align 8
  store ptr %0, ptr %4, align 8
  store ptr %1, ptr %5, align 8
  store ptr %2, ptr %6, align 8
  %10 = load ptr, ptr %5, align 8
  %11 = load ptr, ptr %10, align 8
  %12 = icmp eq ptr %11, null
  br i1 %12, label %13, label %18

13:                                               ; preds = %3
  %14 = load ptr, ptr %6, align 8
  %15 = load ptr, ptr %14, align 8
  %16 = icmp eq ptr %15, null
  br i1 %16, label %17, label %18

17:                                               ; preds = %13
  br label %76

18:                                               ; preds = %13, %3
  %19 = load ptr, ptr %5, align 8
  %20 = load ptr, ptr %19, align 8
  %21 = icmp eq ptr %20, null
  br i1 %21, label %22, label %35

22:                                               ; preds = %18
  %23 = load ptr, ptr %6, align 8
  %24 = load ptr, ptr %23, align 8
  %25 = icmp ne ptr %24, null
  br i1 %25, label %26, label %35

26:                                               ; preds = %22
  call void @llvm.lifetime.start.p0(i64 8, ptr %7) #3
  %27 = load ptr, ptr %4, align 8
  %28 = load ptr, ptr %6, align 8
  %29 = load ptr, ptr %28, align 8
  %30 = call ptr @_on_key(ptr noundef %27, ptr noundef %29)
  store ptr %30, ptr %7, align 8
  %31 = load ptr, ptr %7, align 8
  %32 = call ptr @data_set_bool(ptr noundef %31, i1 noundef zeroext true)
  %33 = load ptr, ptr %6, align 8
  call void @slurm_xfree(ptr noundef %33)
  %34 = load ptr, ptr %6, align 8
  store ptr null, ptr %34, align 8
  call void @llvm.lifetime.end.p0(i64 8, ptr %7) #3
  br label %75

35:                                               ; preds = %22, %18
  %36 = load ptr, ptr %5, align 8
  %37 = load ptr, ptr %36, align 8
  %38 = icmp ne ptr %37, null
  br i1 %38, label %39, label %52

39:                                               ; preds = %35
  %40 = load ptr, ptr %6, align 8
  %41 = load ptr, ptr %40, align 8
  %42 = icmp eq ptr %41, null
  br i1 %42, label %43, label %52

43:                                               ; preds = %39
  call void @llvm.lifetime.start.p0(i64 8, ptr %8) #3
  %44 = load ptr, ptr %4, align 8
  %45 = load ptr, ptr %5, align 8
  %46 = load ptr, ptr %45, align 8
  %47 = call ptr @_on_key(ptr noundef %44, ptr noundef %46)
  store ptr %47, ptr %8, align 8
  %48 = load ptr, ptr %8, align 8
  %49 = call ptr @data_set_null(ptr noundef %48)
  %50 = load ptr, ptr %5, align 8
  call void @slurm_xfree(ptr noundef %50)
  %51 = load ptr, ptr %5, align 8
  store ptr null, ptr %51, align 8
  call void @llvm.lifetime.end.p0(i64 8, ptr %8) #3
  br label %74

52:                                               ; preds = %39, %35
  %53 = load ptr, ptr %5, align 8
  %54 = load ptr, ptr %53, align 8
  %55 = icmp ne ptr %54, null
  br i1 %55, label %56, label %73

56:                                               ; preds = %52
  %57 = load ptr, ptr %6, align 8
  %58 = load ptr, ptr %57, align 8
  %59 = icmp ne ptr %58, null
  br i1 %59, label %60, label %73

60:                                               ; preds = %56
  call void @llvm.lifetime.start.p0(i64 8, ptr %9) #3
  %61 = load ptr, ptr %4, align 8
  %62 = load ptr, ptr %5, align 8
  %63 = load ptr, ptr %62, align 8
  %64 = call ptr @_on_key(ptr noundef %61, ptr noundef %63)
  store ptr %64, ptr %9, align 8
  %65 = load ptr, ptr %9, align 8
  %66 = load ptr, ptr %6, align 8
  %67 = load ptr, ptr %66, align 8
  %68 = call ptr @data_set_string(ptr noundef %65, ptr noundef %67)
  %69 = load ptr, ptr %5, align 8
  call void @slurm_xfree(ptr noundef %69)
  %70 = load ptr, ptr %6, align 8
  call void @slurm_xfree(ptr noundef %70)
  %71 = load ptr, ptr %5, align 8
  store ptr null, ptr %71, align 8
  %72 = load ptr, ptr %6, align 8
  store ptr null, ptr %72, align 8
  call void @llvm.lifetime.end.p0(i64 8, ptr %9) #3
  br label %73

73:                                               ; preds = %60, %56, %52
  br label %74

74:                                               ; preds = %73, %43
  br label %75

75:                                               ; preds = %74, %26
  br label %76

76:                                               ; preds = %75, %17
  ret i32 0
}