; Function Attrs: nounwind uwtable
define internal fastcc void @_handle_new_key_char(ptr noundef %0, ptr noundef nonnull %1, ptr noundef nonnull %2) unnamed_addr #1 {
  %4 = load ptr, ptr %1, align 8
  %5 = icmp eq ptr %4, null
  %6 = load ptr, ptr %2, align 8
  %7 = icmp eq ptr %6, null
  br i1 %5, label %8, label %12

8:                                                ; preds = %3
  br i1 %7, label %.thread32, label %9

9:                                                ; preds = %8
  %10 = tail call fastcc ptr @_on_key(ptr noundef %0, ptr noundef %6)
  %11 = tail call ptr @data_set_bool(ptr noundef %10, i1 noundef zeroext true) #4
  tail call void @slurm_xfree(ptr noundef nonnull %2) #4
  br label %.thread32.sink.split

12:                                               ; preds = %3
  %13 = tail call fastcc ptr @_on_key(ptr noundef %0, ptr noundef %4)
  br i1 %7, label %14, label %16

14:                                               ; preds = %12
  %15 = tail call ptr @data_set_null(ptr noundef %13) #4
  tail call void @slurm_xfree(ptr noundef nonnull %1) #4
  br label %.thread32.sink.split

16:                                               ; preds = %12
  %17 = load ptr, ptr %2, align 8
  %18 = tail call ptr @data_set_string(ptr noundef %13, ptr noundef %17) #4
  tail call void @slurm_xfree(ptr noundef nonnull %1) #4
  tail call void @slurm_xfree(ptr noundef nonnull %2) #4
  store ptr null, ptr %1, align 8
  br label %.thread32.sink.split

.thread32.sink.split:                             ; preds = %14, %16, %9
  %.sink = phi ptr [ %2, %9 ], [ %2, %16 ], [ %1, %14 ]
  store ptr null, ptr %.sink, align 8
  br label %.thread32

.thread32:                                        ; preds = %.thread32.sink.split, %8
  ret void
}